; Function Attrs: mustprogress nofree norecurse nosync nounwind willreturn memory(argmem: read) uwtable
define ptr @lv_indev_get_scroll_obj(ptr noundef readonly captures(address_is_null) %0) local_unnamed_addr #6 {
  %2 = icmp eq ptr %0, null
  br i1 %2, label %8, label %3

3:                                                ; preds = %1
  %4 = load i32, ptr %0, align 8, !tbaa !23
  switch i32 %4, label %8 [
    i32 1, label %5
    i32 3, label %5
  ]

5:                                                ; preds = %3, %3
  %6 = getelementptr inbounds nuw i8, ptr %0, i64 160
  %7 = load ptr, ptr %6, align 8, !tbaa !61
  br label %8

8:                                                ; preds = %3, %1, %5
  %.0 = phi ptr [ %7, %5 ], [ null, %1 ], [ null, %3 ]
  ret ptr %.0
}